target datalayout = "e-m:e-p270:32:32-p271:32:32-p272:64:64-i64:64-i128:128-f80:128-n8:16:32:64-S128"
target triple = "x86_64-pc-linux-gnu"

%class.NumpyAllocator = type { %"class.cv::MatAllocator", ptr }
%"class.cv::MatAllocator" = type { ptr }

; Function Attrs: mustprogress uwtable
define hidden noundef zeroext i1 @_ZNK14NumpyAllocator8allocateEPN2cv8UMatDataENS0_10AccessFlagENS0_14UMatUsageFlagsE(ptr noundef nonnull align 8 dereferenceable(16) %0, ptr noundef %1, i32 noundef %2, i32 noundef %3) unnamed_addr #0 align 2 {
  %5 = alloca ptr, align 8
  %6 = alloca ptr, align 8
  %7 = alloca i32, align 4
  %8 = alloca i32, align 4
  store ptr %0, ptr %5, align 8, !tbaa !3
  store ptr %1, ptr %6, align 8, !tbaa !16
  store i32 %2, ptr %7, align 4, !tbaa !43
  store i32 %3, ptr %8, align 4, !tbaa !45
  %9 = load ptr, ptr %5, align 8
  %10 = getelementptr inbounds nuw %class.NumpyAllocator, ptr %9, i32 0, i32 1
  %11 = load ptr, ptr %10, align 8, !tbaa !47
  %12 = load ptr, ptr %6, align 8, !tbaa !16
  %13 = load i32, ptr %7, align 4, !tbaa !43
  %14 = load i32, ptr %8, align 4, !tbaa !45
  %15 = load ptr, ptr %11, align 8, !tbaa !50
  %16 = getelementptr inbounds ptr, ptr %15, i64 3
  %17 = load ptr, ptr %16, align 8
  %18 = call noundef zeroext i1 %17(ptr noundef nonnull align 8 dereferenceable(8) %11, ptr noundef %12, i32 noundef %13, i32 noundef %14)
  ret i1 %18
}