; Function Attrs: mustprogress uwtable
define hidden noundef zeroext i1 @_ZNK14NumpyAllocator8allocateEPN2cv8UMatDataENS0_10AccessFlagENS0_14UMatUsageFlagsE(ptr noundef nonnull readonly align 8 captures(none) dereferenceable(16) %0, ptr noundef %1, i32 noundef %2, i32 noundef %3) unnamed_addr #0 align 2 {
  %5 = getelementptr inbounds nuw i8, ptr %0, i64 8
  %6 = load ptr, ptr %5, align 8, !tbaa !33
  %7 = load ptr, ptr %6, align 8, !tbaa !36
  %8 = getelementptr inbounds nuw i8, ptr %7, i64 24
  %9 = load ptr, ptr %8, align 8
  %10 = tail call noundef zeroext i1 %9(ptr noundef nonnull align 8 dereferenceable(8) %6, ptr noundef %1, i32 noundef %2, i32 noundef %3)
  ret i1 %10
}